(lp1
(lp2
F1
aa(lp3
cnumpy.core.multiarray
scalar
p4
(cnumpy
dtype
p5
(S'f8'
I0
I1
tRp6
(I3
S'<'
NNNI-1
I-1
I0
tbS'8\xef,6V\x8b\xd7?'
tRp7
aa(lp8
g4
(g6
S'\xcc\x81\xbf\xa3\xaaR\xc1?'
tRp9
ag4
(g6
S'8\xef,6V\x8b\xd7?'
tRp10
aa.